; Function Attrs: mustprogress uwtable
define hidden void @_ZN4cvc58internal6theory22TheoryInferenceManager11conflictExpENS1_11InferenceIdERKSt6vectorINS0_12NodeTemplateILb1EEESaIS6_EEPNS0_14ProofGeneratorE(ptr noundef nonnull align 8 dereferenceable(256) %this, i32 noundef %id, ptr noundef nonnull align 8 dereferenceable(24) %exp, ptr noundef %pg) local_unnamed_addr #3 align 2 personality ptr @__gxx_personality_v0 {
entry:
  %tconf = alloca %"class.cvc5::internal::TrustNode", align 8
  %agg.tmp = alloca %"class.cvc5::internal::TrustNode", align 8
  %d_theoryState = getelementptr inbounds i8, ptr %this, i64 24
  %0 = load ptr, ptr %d_theoryState, align 8
  %vtable = load ptr, ptr %0, align 8
  %vfn = getelementptr inbounds i8, ptr %vtable, i64 72
  %1 = load ptr, ptr %vfn, align 8
  %call = tail call noundef zeroext i1 %1(ptr noundef nonnull align 8 dereferenceable(80) %0)
  br i1 %call, label %if.end, label %if.then

if.then:                                          ; preds = %entry
  call void @_ZN4cvc58internal6theory22TheoryInferenceManager13mkConflictExpERKSt6vectorINS0_12NodeTemplateILb1EEESaIS5_EEPNS0_14ProofGeneratorE(ptr nonnull sret(%"class.cvc5::internal::TrustNode") align 8 %tconf, ptr noundef nonnull align 8 dereferenceable(256) %this, ptr noundef nonnull align 8 dereferenceable(24) %exp, ptr noundef %pg)
  %2 = load i32, ptr %tconf, align 8
  store i32 %2, ptr %agg.tmp, align 8
  %d_proven.i = getelementptr inbounds i8, ptr %agg.tmp, i64 8
  %d_proven3.i = getelementptr inbounds i8, ptr %tconf, i64 8
  %3 = load ptr, ptr %d_proven3.i, align 8
  store ptr %3, ptr %d_proven.i, align 8
  %bf.load.i.i.i = load i64, ptr %3, align 8
  %bf.lshr.i.i.i = lshr i64 %bf.load.i.i.i, 40
  %4 = trunc i64 %bf.lshr.i.i.i to i32
  %bf.cast.i.i.i = and i32 %4, 1048575
  %cmp.i.i.i = icmp ult i32 %bf.cast.i.i.i, 1048574
  br i1 %cmp.i.i.i, label %if.then.i.i.i, label %if.else.i.i.i

if.then.i.i.i:                                    ; preds = %if.then
  %bf.value.i.i.i = add i64 %bf.load.i.i.i, 1099511627776
  %bf.shl.i.i.i = and i64 %bf.value.i.i.i, 1152920405095219200
  %bf.clear7.i.i.i = and i64 %bf.load.i.i.i, -1152920405095219201
  %bf.set.i.i.i = or disjoint i64 %bf.shl.i.i.i, %bf.clear7.i.i.i
  store i64 %bf.set.i.i.i, ptr %3, align 8
  br label %invoke.cont

if.else.i.i.i:                                    ; preds = %if.then
  %cmp12.i.i.i = icmp eq i32 %bf.cast.i.i.i, 1048574
  br i1 %cmp12.i.i.i, label %if.then13.i.i.i, label %invoke.cont

if.then13.i.i.i:                                  ; preds = %if.else.i.i.i
  %bf.set23.i.i.i = or i64 %bf.load.i.i.i, 1152920405095219200
  store i64 %bf.set23.i.i.i, ptr %3, align 8
  invoke void @_ZN4cvc58internal4expr9NodeValue20markRefCountMaxedOutEv(ptr noundef nonnull align 8 dereferenceable(16) %3)
          to label %invoke.cont unwind label %lpad

invoke.cont:                                      ; preds = %if.else.i.i.i, %if.then.i.i.i, %if.then13.i.i.i
  %d_gen.i = getelementptr inbounds i8, ptr %agg.tmp, i64 16
  %d_gen4.i = getelementptr inbounds i8, ptr %tconf, i64 16
  %5 = load ptr, ptr %d_gen4.i, align 8
  store ptr %5, ptr %d_gen.i, align 8
  invoke void @_ZN4cvc58internal6theory22TheoryInferenceManager15trustedConflictENS0_9TrustNodeENS1_11InferenceIdE(ptr noundef nonnull align 8 dereferenceable(256) %this, ptr noundef nonnull %agg.tmp, i32 noundef %id)
          to label %invoke.cont3 unwind label %lpad2

invoke.cont3:                                     ; preds = %invoke.cont
  %6 = load ptr, ptr %d_proven.i, align 8
  %bf.load.i.i.i3 = load i64, ptr %6, align 8
  %7 = and i64 %bf.load.i.i.i3, 1152920405095219200
  %cmp.not.i.i.i = icmp eq i64 %7, 1152920405095219200
  br i1 %cmp.not.i.i.i, label %_ZN4cvc58internal9TrustNodeD2Ev.exit, label %if.then.i.i.i4

if.then.i.i.i4:                                   ; preds = %invoke.cont3
  %bf.value.i.i.i5 = add i64 %bf.load.i.i.i3, 1152920405095219200
  %bf.shl.i.i.i6 = and i64 %bf.value.i.i.i5, 1152920405095219200
  %bf.clear7.i.i.i7 = and i64 %bf.load.i.i.i3, -1152920405095219201
  %bf.set.i.i.i8 = or disjoint i64 %bf.shl.i.i.i6, %bf.clear7.i.i.i7
  store i64 %bf.set.i.i.i8, ptr %6, align 8
  %cmp12.i.i.i9 = icmp eq i64 %bf.shl.i.i.i6, 0
  br i1 %cmp12.i.i.i9, label %if.then13.i.i.i10, label %_ZN4cvc58internal9TrustNodeD2Ev.exit

if.then13.i.i.i10:                                ; preds = %if.then.i.i.i4
  invoke void @_ZN4cvc58internal4expr9NodeValue15markForDeletionEv(ptr noundef nonnull align 8 dereferenceable(16) %6)
          to label %_ZN4cvc58internal9TrustNodeD2Ev.exit unwind label %terminate.lpad.i.i

terminate.lpad.i.i:                               ; preds = %if.then13.i.i.i10
  %8 = landingpad { ptr, i32 }
          catch ptr null
  %9 = extractvalue { ptr, i32 } %8, 0
  call void @__clang_call_terminate(ptr %9) #26
  unreachable

_ZN4cvc58internal9TrustNodeD2Ev.exit:             ; preds = %invoke.cont3, %if.then.i.i.i4, %if.then13.i.i.i10
  %10 = load ptr, ptr %d_proven3.i, align 8
  %bf.load.i.i.i12 = load i64, ptr %10, align 8
  %11 = and i64 %bf.load.i.i.i12, 1152920405095219200
  %cmp.not.i.i.i13 = icmp eq i64 %11, 1152920405095219200
  br i1 %cmp.not.i.i.i13, label %if.end, label %if.then.i.i.i14

if.then.i.i.i14:                                  ; preds = %_ZN4cvc58internal9TrustNodeD2Ev.exit
  %bf.value.i.i.i15 = add i64 %bf.load.i.i.i12, 1152920405095219200
  %bf.shl.i.i.i16 = and i64 %bf.value.i.i.i15, 1152920405095219200
  %bf.clear7.i.i.i17 = and i64 %bf.load.i.i.i12, -1152920405095219201
  %bf.set.i.i.i18 = or disjoint i64 %bf.shl.i.i.i16, %bf.clear7.i.i.i17
  store i64 %bf.set.i.i.i18, ptr %10, align 8
  %cmp12.i.i.i19 = icmp eq i64 %bf.shl.i.i.i16, 0
  br i1 %cmp12.i.i.i19, label %if.then13.i.i.i20, label %if.end

if.then13.i.i.i20:                                ; preds = %if.then.i.i.i14
  invoke void @_ZN4cvc58internal4expr9NodeValue15markForDeletionEv(ptr noundef nonnull align 8 dereferenceable(16) %10)
          to label %if.end unwind label %terminate.lpad.i.i21

terminate.lpad.i.i21:                             ; preds = %if.then13.i.i.i20
  %12 = landingpad { ptr, i32 }
          catch ptr null
  %13 = extractvalue { ptr, i32 } %12, 0
  call void @__clang_call_terminate(ptr %13) #26
  unreachable

lpad:                                             ; preds = %if.then13.i.i.i
  %14 = landingpad { ptr, i32 }
          cleanup
  br label %ehcleanup

lpad2:                                            ; preds = %invoke.cont
  %15 = landingpad { ptr, i32 }
          cleanup
  call void @_ZN4cvc58internal9TrustNodeD2Ev(ptr noundef nonnull align 8 dereferenceable(24) %agg.tmp) #25
  br label %ehcleanup

ehcleanup:                                        ; preds = %lpad2, %lpad
  %.pn = phi { ptr, i32 } [ %15, %lpad2 ], [ %14, %lpad ]
  call void @_ZN4cvc58internal9TrustNodeD2Ev(ptr noundef nonnull align 8 dereferenceable(24) %tconf) #25
  resume { ptr, i32 } %.pn

if.end:                                           ; preds = %if.then13.i.i.i20, %if.then.i.i.i14, %_ZN4cvc58internal9TrustNodeD2Ev.exit, %entry
  ret void
}